target datalayout = "e-m:e-p270:32:32-p271:32:32-p272:64:64-i64:64-i128:128-f80:128-n8:16:32:64-S128"
target triple = "x86_64-pc-linux-gnu"

%"struct.std::_Vector_base.3" = type { %"struct.std::_Vector_base<unsigned char, std::allocator<unsigned char>>::_Vector_impl" }
%"struct.std::_Vector_base<unsigned char, std::allocator<unsigned char>>::_Vector_impl" = type { %"struct.std::_Vector_base<unsigned char, std::allocator<unsigned char>>::_Vector_impl_data" }
%"struct.std::_Vector_base<unsigned char, std::allocator<unsigned char>>::_Vector_impl_data" = type { ptr, ptr, ptr }

@stderr = external global ptr, align 8
@.str.70 = private unnamed_addr constant [26 x i8] c"EVP_DecodedLength failed\0A\00", align 1
@.str.71 = private unnamed_addr constant [25 x i8] c"EVP_DecodeBase64 failed\0A\00", align 1

; Function Attrs: mustprogress nounwind uwtable
define linkonce_odr noundef ptr @_ZNKSt6vectorIhSaIhEE11_M_data_ptrIhEEPT_S4_(ptr noundef nonnull align 8 dereferenceable(24) %0, ptr noundef %1) #3 comdat align 2 {
  %3 = alloca ptr, align 8
  %4 = alloca ptr, align 8
  store ptr %0, ptr %3, align 8, !tbaa !136
  store ptr %1, ptr %4, align 8, !tbaa !44
  %5 = load ptr, ptr %4, align 8, !tbaa !44
  ret ptr %5
}

; Function Attrs: mustprogress nounwind uwtable
define linkonce_odr noundef ptr @_ZNSt6vectorIhSaIhEE4dataEv(ptr noundef nonnull align 8 dereferenceable(24) %0) #3 comdat align 2 {
  %2 = alloca ptr, align 8
  store ptr %0, ptr %2, align 8, !tbaa !136
  %3 = load ptr, ptr %2, align 8
  %4 = getelementptr inbounds nuw %"struct.std::_Vector_base.3", ptr %3, i32 0, i32 0
  %5 = getelementptr inbounds nuw %"struct.std::_Vector_base<unsigned char, std::allocator<unsigned char>>::_Vector_impl_data", ptr %4, i32 0, i32 0
  %6 = load ptr, ptr %5, align 8, !tbaa !138
  %7 = call noundef ptr @_ZNKSt6vectorIhSaIhEE11_M_data_ptrIhEEPT_S4_(ptr noundef nonnull align 8 dereferenceable(24) %3, ptr noundef %6) #6
  ret ptr %7
}

; Function Attrs: mustprogress uwtable
define internal noundef zeroext i1 @_ZL12DecodeBase64PSt6vectorIhSaIhEEPKc(ptr noundef %0, ptr noundef %1) #4 {
  %3 = alloca i1, align 1
  %4 = alloca ptr, align 8
  %5 = alloca ptr, align 8
  %6 = alloca i64, align 8
  %7 = alloca i32, align 4
  store ptr %0, ptr %4, align 8, !tbaa !136
  store ptr %1, ptr %5, align 8, !tbaa !44
  call void @llvm.lifetime.start.p0(i64 8, ptr %6) #6
  %8 = load ptr, ptr %5, align 8, !tbaa !44
  %9 = call i64 @strlen(ptr noundef %8) #22
  %10 = call i32 @EVP_DecodedLength(ptr noundef %6, i64 noundef %9)
  %11 = icmp ne i32 %10, 0
  br i1 %11, label %15, label %12

12:                                               ; preds = %2
  %13 = load ptr, ptr @stderr, align 8, !tbaa !40
  %14 = call i32 (ptr, ptr, ...) @fprintf(ptr noundef %13, ptr noundef @.str.70) #6
  store i1 false, ptr %3, align 1
  store i32 1, ptr %7, align 4
  br label %32

15:                                               ; preds = %2
  %16 = load ptr, ptr %4, align 8, !tbaa !136
  %17 = load i64, ptr %6, align 8, !tbaa !45
  call void @_ZNSt6vectorIhSaIhEE6resizeEm(ptr noundef nonnull align 8 dereferenceable(24) %16, i64 noundef %17)
  %18 = load ptr, ptr %4, align 8, !tbaa !136
  %19 = call noundef ptr @_ZNSt6vectorIhSaIhEE4dataEv(ptr noundef nonnull align 8 dereferenceable(24) %18) #6
  %20 = load i64, ptr %6, align 8, !tbaa !45
  %21 = load ptr, ptr %5, align 8, !tbaa !44
  %22 = load ptr, ptr %5, align 8, !tbaa !44
  %23 = call i64 @strlen(ptr noundef %22) #22
  %24 = call i32 @EVP_DecodeBase64(ptr noundef %19, ptr noundef %6, i64 noundef %20, ptr noundef %21, i64 noundef %23)
  %25 = icmp ne i32 %24, 0
  br i1 %25, label %29, label %26

26:                                               ; preds = %15
  %27 = load ptr, ptr @stderr, align 8, !tbaa !40
  %28 = call i32 (ptr, ptr, ...) @fprintf(ptr noundef %27, ptr noundef @.str.71) #6
  store i1 false, ptr %3, align 1
  store i32 1, ptr %7, align 4
  br label %32

29:                                               ; preds = %15
  %30 = load ptr, ptr %4, align 8, !tbaa !136
  %31 = load i64, ptr %6, align 8, !tbaa !45
  call void @_ZNSt6vectorIhSaIhEE6resizeEm(ptr noundef nonnull align 8 dereferenceable(24) %30, i64 noundef %31)
  store i1 true, ptr %3, align 1
  store i32 1, ptr %7, align 4
  br label %32

32:                                               ; preds = %29, %26, %12
  call void @llvm.lifetime.end.p0(i64 8, ptr %6) #6
  %33 = load i1, ptr %3, align 1
  ret i1 %33
}