; Function Attrs: mustprogress norecurse uwtable
define internal fastcc noundef zeroext i1 @_ZL12DecodeBase64PSt6vectorIhSaIhEEPKc(ptr noundef nonnull %0, ptr noundef %1) unnamed_addr #4 {
  %3 = alloca i64, align 8
  call void @llvm.lifetime.start.p0(i64 8, ptr nonnull %3) #26
  %4 = tail call i64 @strlen(ptr noundef nonnull dereferenceable(1) %1) #33
  %5 = call i32 @EVP_DecodedLength(ptr noundef nonnull %3, i64 noundef %4)
  %.not = icmp eq i32 %5, 0
  br i1 %.not, label %6, label %9

6:                                                ; preds = %2
  %7 = load ptr, ptr @stderr, align 8, !tbaa !20
  %8 = call i64 @fwrite(ptr nonnull @.str.70, i64 25, i64 1, ptr %7) #29
  br label %20

9:                                                ; preds = %2
  %10 = load i64, ptr %3, align 8, !tbaa !61
  call void @_ZNSt6vectorIhSaIhEE6resizeEm(ptr noundef nonnull align 8 dereferenceable(24) %0, i64 noundef %10)
  %11 = load ptr, ptr %0, align 8, !tbaa !57
  %12 = load i64, ptr %3, align 8, !tbaa !61
  %13 = call i64 @strlen(ptr noundef nonnull dereferenceable(1) %1) #33
  %14 = call i32 @EVP_DecodeBase64(ptr noundef %11, ptr noundef nonnull %3, i64 noundef %12, ptr noundef nonnull %1, i64 noundef %13)
  %.not7 = icmp eq i32 %14, 0
  br i1 %.not7, label %15, label %18

15:                                               ; preds = %9
  %16 = load ptr, ptr @stderr, align 8, !tbaa !20
  %17 = call i64 @fwrite(ptr nonnull @.str.71, i64 24, i64 1, ptr %16) #29
  br label %20

18:                                               ; preds = %9
  %19 = load i64, ptr %3, align 8, !tbaa !61
  call void @_ZNSt6vectorIhSaIhEE6resizeEm(ptr noundef nonnull align 8 dereferenceable(24) %0, i64 noundef %19)
  br label %20

20:                                               ; preds = %18, %15, %6
  %.0 = phi i1 [ true, %18 ], [ false, %15 ], [ false, %6 ]
  call void @llvm.lifetime.end.p0(i64 8, ptr nonnull %3) #26
  ret i1 %.0
}